target datalayout = "e-m:e-p270:32:32-p271:32:32-p272:64:64-i64:64-i128:128-f80:128-n8:16:32:64-S128"
target triple = "x86_64-unknown-linux-gnu"

%class.fpa2bv_model_converter = type { %class.model_converter.base, ptr, ptr }
%class.model_converter.base = type <{ %class.converter.base, [4 x i8], ptr, i8 }>
%class.converter.base = type <{ ptr, i32 }>
%class.model_converter = type <{ %class.converter.base, [4 x i8], ptr, i8, [7 x i8] }>
%class.converter = type <{ ptr, i32, [4 x i8] }>

@_ZTV15model_converter = external unnamed_addr constant { [12 x ptr] }, align 8
@_ZTV9converter = linkonce_odr hidden unnamed_addr constant { [6 x ptr] } { [6 x ptr] [ptr null, ptr @_ZTI9converter, ptr @_ZN9converterD2Ev, ptr @_ZN9converterD0Ev, ptr @_ZN9converter6cancelEv, ptr @__cxa_pure_virtual] }, comdat, align 8

; Function Attrs: mustprogress nounwind uwtable
define linkonce_odr hidden void @_ZN9converterD2Ev(ptr noundef nonnull align 8 dereferenceable(12) %this) unnamed_addr #5 comdat align 2 {
entry:
  %this.addr = alloca ptr, align 8
  store ptr %this, ptr %this.addr, align 8
  ret void
}

; Function Attrs: mustprogress nounwind uwtable
define linkonce_odr hidden void @_ZN9converterC2Ev(ptr noundef nonnull align 8 dereferenceable(12) %this) unnamed_addr #5 comdat align 2 {
entry:
  %this.addr = alloca ptr, align 8
  store ptr %this, ptr %this.addr, align 8
  %this1 = load ptr, ptr %this.addr, align 8
  store ptr getelementptr inbounds ({ [6 x ptr] }, ptr @_ZTV9converter, i32 0, i32 0, i32 2), ptr %this1, align 8
  %m_ref_count = getelementptr inbounds %class.converter, ptr %this1, i32 0, i32 1
  store i32 0, ptr %m_ref_count, align 8
  ret void
}

; Function Attrs: mustprogress nounwind uwtable
define linkonce_odr hidden void @_ZN15model_converterD2Ev(ptr noundef nonnull align 8 dereferenceable(25) %this) unnamed_addr #5 comdat align 2 {
entry:
  %this.addr = alloca ptr, align 8
  store ptr %this, ptr %this.addr, align 8
  %this1 = load ptr, ptr %this.addr, align 8
  call void @_ZN9converterD2Ev(ptr noundef nonnull align 8 dereferenceable(12) %this1) #3
  ret void
}

; Function Attrs: mustprogress uwtable
define linkonce_odr hidden void @_ZN15model_converterC2Ev(ptr noundef nonnull align 8 dereferenceable(25) %this) unnamed_addr #4 comdat align 2 {
entry:
  %this.addr = alloca ptr, align 8
  store ptr %this, ptr %this.addr, align 8
  %this1 = load ptr, ptr %this.addr, align 8
  call void @_ZN9converterC2Ev(ptr noundef nonnull align 8 dereferenceable(12) %this1)
  store ptr getelementptr inbounds ({ [12 x ptr] }, ptr @_ZTV15model_converter, i32 0, i32 0, i32 2), ptr %this1, align 8
  %m_env = getelementptr inbounds %class.model_converter, ptr %this1, i32 0, i32 2
  store ptr null, ptr %m_env, align 8
  %m_completion = getelementptr inbounds %class.model_converter, ptr %this1, i32 0, i32 3
  store i8 1, ptr %m_completion, align 8
  ret void
}

; Function Attrs: mustprogress uwtable
define linkonce_odr hidden void @_ZN22fpa2bv_model_converterC2ER11ast_managerR16fpa2bv_converter(ptr noundef nonnull align 8 dereferenceable(48) %this, ptr noundef nonnull align 8 dereferenceable(976) %m, ptr noundef nonnull align 8 dereferenceable(760) %conv) unnamed_addr #4 comdat align 2 personality ptr @__gxx_personality_v0 {
entry:
  %this.addr = alloca ptr, align 8
  %m.addr = alloca ptr, align 8
  %conv.addr = alloca ptr, align 8
  %exn.slot = alloca ptr, align 8
  %ehselector.slot = alloca i32, align 4
  store ptr %this, ptr %this.addr, align 8
  store ptr %m, ptr %m.addr, align 8
  store ptr %conv, ptr %conv.addr, align 8
  %this1 = load ptr, ptr %this.addr, align 8
  call void @_ZN15model_converterC2Ev(ptr noundef nonnull align 8 dereferenceable(25) %this1)
  store ptr getelementptr inbounds ({ [12 x ptr] }, ptr @_ZTV22fpa2bv_model_converter, i32 0, i32 0, i32 2), ptr %this1, align 8
  %m2 = getelementptr inbounds %class.fpa2bv_model_converter, ptr %this1, i32 0, i32 1
  %0 = load ptr, ptr %m.addr, align 8
  store ptr %0, ptr %m2, align 8
  %m_bv2fp = getelementptr inbounds %class.fpa2bv_model_converter, ptr %this1, i32 0, i32 2
  %call = invoke noalias noundef ptr @_ZN6memory8allocateEm(i64 noundef 216)
          to label %invoke.cont unwind label %lpad

invoke.cont:                                      ; preds = %entry
  %1 = load ptr, ptr %m.addr, align 8
  %2 = load ptr, ptr %conv.addr, align 8
  invoke void @_ZN16bv2fpa_converterC1ER11ast_managerR16fpa2bv_converter(ptr noundef nonnull align 8 dereferenceable(216) %call, ptr noundef nonnull align 8 dereferenceable(976) %1, ptr noundef nonnull align 8 dereferenceable(760) %2)
          to label %invoke.cont3 unwind label %lpad

invoke.cont3:                                     ; preds = %invoke.cont
  store ptr %call, ptr %m_bv2fp, align 8
  ret void

lpad:                                             ; preds = %invoke.cont, %entry
  %3 = landingpad { ptr, i32 }
          cleanup
  %4 = extractvalue { ptr, i32 } %3, 0
  store ptr %4, ptr %exn.slot, align 8
  %5 = extractvalue { ptr, i32 } %3, 1
  store i32 %5, ptr %ehselector.slot, align 4
  call void @_ZN15model_converterD2Ev(ptr noundef nonnull align 8 dereferenceable(25) %this1) #3
  br label %eh.resume

eh.resume:                                        ; preds = %lpad
  %exn = load ptr, ptr %exn.slot, align 8
  %sel = load i32, ptr %ehselector.slot, align 4
  %lpad.val = insertvalue { ptr, i32 } poison, ptr %exn, 0
  %lpad.val4 = insertvalue { ptr, i32 } %lpad.val, i32 %sel, 1
  resume { ptr, i32 } %lpad.val4
}

; Function Attrs: mustprogress uwtable
define hidden noundef ptr @_Z25mk_fpa2bv_model_converterR11ast_managerR16fpa2bv_converter(ptr noundef nonnull align 8 dereferenceable(976) %m, ptr noundef nonnull align 8 dereferenceable(760) %conv) #4 {
entry:
  %m.addr = alloca ptr, align 8
  %conv.addr = alloca ptr, align 8
  store ptr %m, ptr %m.addr, align 8
  store ptr %conv, ptr %conv.addr, align 8
  %call = call noalias noundef ptr @_ZN6memory8allocateEm(i64 noundef 48)
  %0 = load ptr, ptr %m.addr, align 8
  %1 = load ptr, ptr %conv.addr, align 8
  call void @_ZN22fpa2bv_model_converterC2ER11ast_managerR16fpa2bv_converter(ptr noundef nonnull align 8 dereferenceable(48) %call, ptr noundef nonnull align 8 dereferenceable(976) %0, ptr noundef nonnull align 8 dereferenceable(760) %1)
  ret ptr %call
}