; Function Attrs: mustprogress uwtable
define hidden noalias noundef ptr @_Z25mk_fpa2bv_model_converterR11ast_managerR16fpa2bv_converter(ptr noundef nonnull align 8 dereferenceable(976) %m, ptr noundef nonnull align 8 dereferenceable(760) %conv) local_unnamed_addr #3 personality ptr @__gxx_personality_v0 {
entry:
  %call = tail call noalias noundef ptr @_ZN6memory8allocateEm(i64 noundef 48)
  %m_ref_count.i.i.i = getelementptr inbounds i8, ptr %call, i64 8
  store i32 0, ptr %m_ref_count.i.i.i, align 8
  %m_env.i.i = getelementptr inbounds i8, ptr %call, i64 16
  store ptr null, ptr %m_env.i.i, align 8
  %m_completion.i.i = getelementptr inbounds i8, ptr %call, i64 24
  store i8 1, ptr %m_completion.i.i, align 8
  store ptr getelementptr inbounds ({ [12 x ptr] }, ptr @_ZTV22fpa2bv_model_converter, i64 0, i32 0, i64 2), ptr %call, align 8
  %m2.i = getelementptr inbounds i8, ptr %call, i64 32
  store ptr %m, ptr %m2.i, align 8
  %call.i = tail call noalias noundef ptr @_ZN6memory8allocateEm(i64 noundef 216)
  tail call void @_ZN16bv2fpa_converterC1ER11ast_managerR16fpa2bv_converter(ptr noundef nonnull align 8 dereferenceable(216) %call.i, ptr noundef nonnull align 8 dereferenceable(976) %m, ptr noundef nonnull align 8 dereferenceable(760) %conv)
  %m_bv2fp.i = getelementptr inbounds i8, ptr %call, i64 40
  store ptr %call.i, ptr %m_bv2fp.i, align 8
  ret ptr %call
}